(lp0
(dp1
S'date'
p2
cdatetime
date
p3
(S'\x07\xde\x04\x0e'
p4
tp5
Rp6
sS'text'
p7
S"This is a test post don't be alarmed"
p8
sS'title'
p9
S'Hello, World'
p10
sa(dp11
g2
g3
(S'\x07\xde\x04\x0e'
p12
tp13
Rp14
sg7
S'This is a goodbye post, Goodbye'
p15
sg9
S'Goodbye, World'
p16
sa.